
PID.elf:     file format elf32-avr

Sections:
Idx Name          Size      VMA       LMA       File off  Algn
  0 .text         00000980  00000000  00000000  00000094  2**1
                  CONTENTS, ALLOC, LOAD, READONLY, CODE
  1 .data         00000016  00800060  00000980  00000a14  2**0
                  CONTENTS, ALLOC, LOAD, DATA
  2 .bss          00000026  00800076  00800076  00000a2a  2**0
                  ALLOC
  3 .comment      00000030  00000000  00000000  00000a2a  2**0
                  CONTENTS, READONLY
  4 .note.gnu.avr.deviceinfo 0000003c  00000000  00000000  00000a5c  2**2
                  CONTENTS, READONLY
  5 .debug_aranges 000000e8  00000000  00000000  00000a98  2**0
                  CONTENTS, READONLY, DEBUGGING
  6 .debug_info   00000fbb  00000000  00000000  00000b80  2**0
                  CONTENTS, READONLY, DEBUGGING
  7 .debug_abbrev 00000945  00000000  00000000  00001b3b  2**0
                  CONTENTS, READONLY, DEBUGGING
  8 .debug_line   0000079a  00000000  00000000  00002480  2**0
                  CONTENTS, READONLY, DEBUGGING
  9 .debug_frame  00000218  00000000  00000000  00002c1c  2**2
                  CONTENTS, READONLY, DEBUGGING
 10 .debug_str    000004af  00000000  00000000  00002e34  2**0
                  CONTENTS, READONLY, DEBUGGING
 11 .debug_loc    00000493  00000000  00000000  000032e3  2**0
                  CONTENTS, READONLY, DEBUGGING
 12 .debug_ranges 00000098  00000000  00000000  00003776  2**0
                  CONTENTS, READONLY, DEBUGGING

Disassembly of section .text:

00000000 <__vectors>:
   0:	0c 94 2a 00 	jmp	0x54	; 0x54 <__ctors_end>
   4:	0c 94 41 02 	jmp	0x482	; 0x482 <__vector_1>
   8:	0c 94 47 00 	jmp	0x8e	; 0x8e <__bad_interrupt>
   c:	0c 94 47 00 	jmp	0x8e	; 0x8e <__bad_interrupt>
  10:	0c 94 47 00 	jmp	0x8e	; 0x8e <__bad_interrupt>
  14:	0c 94 47 00 	jmp	0x8e	; 0x8e <__bad_interrupt>
  18:	0c 94 47 00 	jmp	0x8e	; 0x8e <__bad_interrupt>
  1c:	0c 94 47 00 	jmp	0x8e	; 0x8e <__bad_interrupt>
  20:	0c 94 47 00 	jmp	0x8e	; 0x8e <__bad_interrupt>
  24:	0c 94 47 00 	jmp	0x8e	; 0x8e <__bad_interrupt>
  28:	0c 94 47 00 	jmp	0x8e	; 0x8e <__bad_interrupt>
  2c:	0c 94 73 02 	jmp	0x4e6	; 0x4e6 <__vector_11>
  30:	0c 94 47 00 	jmp	0x8e	; 0x8e <__bad_interrupt>
  34:	0c 94 47 00 	jmp	0x8e	; 0x8e <__bad_interrupt>
  38:	0c 94 47 00 	jmp	0x8e	; 0x8e <__bad_interrupt>
  3c:	0c 94 47 00 	jmp	0x8e	; 0x8e <__bad_interrupt>
  40:	0c 94 47 00 	jmp	0x8e	; 0x8e <__bad_interrupt>
  44:	0c 94 47 00 	jmp	0x8e	; 0x8e <__bad_interrupt>
  48:	0c 94 47 00 	jmp	0x8e	; 0x8e <__bad_interrupt>
  4c:	0c 94 47 00 	jmp	0x8e	; 0x8e <__bad_interrupt>
  50:	0c 94 47 00 	jmp	0x8e	; 0x8e <__bad_interrupt>

00000054 <__ctors_end>:
  54:	11 24       	eor	r1, r1
  56:	1f be       	out	0x3f, r1	; 63
  58:	cf e5       	ldi	r28, 0x5F	; 95
  5a:	d8 e0       	ldi	r29, 0x08	; 8
  5c:	de bf       	out	0x3e, r29	; 62
  5e:	cd bf       	out	0x3d, r28	; 61

00000060 <__do_copy_data>:
  60:	10 e0       	ldi	r17, 0x00	; 0
  62:	a0 e6       	ldi	r26, 0x60	; 96
  64:	b0 e0       	ldi	r27, 0x00	; 0
  66:	e0 e8       	ldi	r30, 0x80	; 128
  68:	f9 e0       	ldi	r31, 0x09	; 9
  6a:	02 c0       	rjmp	.+4      	; 0x70 <__do_copy_data+0x10>
  6c:	05 90       	lpm	r0, Z+
  6e:	0d 92       	st	X+, r0
  70:	a6 37       	cpi	r26, 0x76	; 118
  72:	b1 07       	cpc	r27, r17
  74:	d9 f7       	brne	.-10     	; 0x6c <__do_copy_data+0xc>

00000076 <__do_clear_bss>:
  76:	20 e0       	ldi	r18, 0x00	; 0
  78:	a6 e7       	ldi	r26, 0x76	; 118
  7a:	b0 e0       	ldi	r27, 0x00	; 0
  7c:	01 c0       	rjmp	.+2      	; 0x80 <.do_clear_bss_start>

0000007e <.do_clear_bss_loop>:
  7e:	1d 92       	st	X+, r1

00000080 <.do_clear_bss_start>:
  80:	ac 39       	cpi	r26, 0x9C	; 156
  82:	b2 07       	cpc	r27, r18
  84:	e1 f7       	brne	.-8      	; 0x7e <.do_clear_bss_loop>
  86:	0e 94 26 01 	call	0x24c	; 0x24c <main>
  8a:	0c 94 be 04 	jmp	0x97c	; 0x97c <_exit>

0000008e <__bad_interrupt>:
  8e:	0c 94 00 00 	jmp	0	; 0x0 <__vectors>

00000092 <init_display>:
uint8_t DIGIT[10] = {DIGIT_0, DIGIT_1, DIGIT_2, DIGIT_3, DIGIT_4, DIGIT_5, DIGIT_6, DIGIT_7, DIGIT_8, DIGIT_9};
uint8_t DISPLAY_BUFFER[4] = {0};
	
void init_display()
{
	DDRB |= 0x0F;
  92:	87 b3       	in	r24, 0x17	; 23
  94:	8f 60       	ori	r24, 0x0F	; 15
  96:	87 bb       	out	0x17, r24	; 23
	PORTB &= 0xF0;
  98:	88 b3       	in	r24, 0x18	; 24
  9a:	80 7f       	andi	r24, 0xF0	; 240
  9c:	88 bb       	out	0x18, r24	; 24
	DDRC = 0xFF;
  9e:	8f ef       	ldi	r24, 0xFF	; 255
  a0:	84 bb       	out	0x14, r24	; 20
	PORTC = 0x00;
  a2:	15 ba       	out	0x15, r1	; 21
  a4:	08 95       	ret

000000a6 <update_display_buffer>:
}
	
void update_display_buffer(const unsigned int number)
{
  a6:	0f 93       	push	r16
  a8:	1f 93       	push	r17
  aa:	cf 93       	push	r28
  ac:	df 93       	push	r29
  ae:	8c 01       	movw	r16, r24
	unsigned int _number = number;
	DISPLAY_BUFFER[0] = DIGIT[_number % 10];
  b0:	c6 e7       	ldi	r28, 0x76	; 118
  b2:	d0 e0       	ldi	r29, 0x00	; 0
  b4:	9c 01       	movw	r18, r24
  b6:	ad ec       	ldi	r26, 0xCD	; 205
  b8:	bc ec       	ldi	r27, 0xCC	; 204
  ba:	0e 94 af 04 	call	0x95e	; 0x95e <__umulhisi3>
  be:	ac 01       	movw	r20, r24
  c0:	56 95       	lsr	r21
  c2:	47 95       	ror	r20
  c4:	56 95       	lsr	r21
  c6:	47 95       	ror	r20
  c8:	56 95       	lsr	r21
  ca:	47 95       	ror	r20
  cc:	9a 01       	movw	r18, r20
  ce:	22 0f       	add	r18, r18
  d0:	33 1f       	adc	r19, r19
  d2:	ca 01       	movw	r24, r20
  d4:	88 0f       	add	r24, r24
  d6:	99 1f       	adc	r25, r25
  d8:	88 0f       	add	r24, r24
  da:	99 1f       	adc	r25, r25
  dc:	88 0f       	add	r24, r24
  de:	99 1f       	adc	r25, r25
  e0:	82 0f       	add	r24, r18
  e2:	93 1f       	adc	r25, r19
  e4:	f8 01       	movw	r30, r16
  e6:	e8 1b       	sub	r30, r24
  e8:	f9 0b       	sbc	r31, r25
  ea:	e0 5a       	subi	r30, 0xA0	; 160
  ec:	ff 4f       	sbci	r31, 0xFF	; 255
  ee:	80 81       	ld	r24, Z
  f0:	88 83       	st	Y, r24
	_number /= 10;
	DISPLAY_BUFFER[1] = DIGIT[_number % 10];
  f2:	9a 01       	movw	r18, r20
  f4:	0e 94 af 04 	call	0x95e	; 0x95e <__umulhisi3>
  f8:	96 95       	lsr	r25
  fa:	87 95       	ror	r24
  fc:	96 95       	lsr	r25
  fe:	87 95       	ror	r24
 100:	96 95       	lsr	r25
 102:	87 95       	ror	r24
 104:	9c 01       	movw	r18, r24
 106:	22 0f       	add	r18, r18
 108:	33 1f       	adc	r19, r19
 10a:	88 0f       	add	r24, r24
 10c:	99 1f       	adc	r25, r25
 10e:	88 0f       	add	r24, r24
 110:	99 1f       	adc	r25, r25
 112:	88 0f       	add	r24, r24
 114:	99 1f       	adc	r25, r25
 116:	82 0f       	add	r24, r18
 118:	93 1f       	adc	r25, r19
 11a:	48 1b       	sub	r20, r24
 11c:	59 0b       	sbc	r21, r25
 11e:	fa 01       	movw	r30, r20
 120:	e0 5a       	subi	r30, 0xA0	; 160
 122:	ff 4f       	sbci	r31, 0xFF	; 255
 124:	80 81       	ld	r24, Z
 126:	89 83       	std	Y+1, r24	; 0x01
	_number /= 10;
	DISPLAY_BUFFER[2] = DIGIT[_number % 10];
 128:	98 01       	movw	r18, r16
 12a:	36 95       	lsr	r19
 12c:	27 95       	ror	r18
 12e:	36 95       	lsr	r19
 130:	27 95       	ror	r18
 132:	ab e7       	ldi	r26, 0x7B	; 123
 134:	b4 e1       	ldi	r27, 0x14	; 20
 136:	0e 94 af 04 	call	0x95e	; 0x95e <__umulhisi3>
 13a:	ac 01       	movw	r20, r24
 13c:	56 95       	lsr	r21
 13e:	47 95       	ror	r20
 140:	9a 01       	movw	r18, r20
 142:	ad ec       	ldi	r26, 0xCD	; 205
 144:	bc ec       	ldi	r27, 0xCC	; 204
 146:	0e 94 af 04 	call	0x95e	; 0x95e <__umulhisi3>
 14a:	96 95       	lsr	r25
 14c:	87 95       	ror	r24
 14e:	96 95       	lsr	r25
 150:	87 95       	ror	r24
 152:	96 95       	lsr	r25
 154:	87 95       	ror	r24
 156:	9c 01       	movw	r18, r24
 158:	22 0f       	add	r18, r18
 15a:	33 1f       	adc	r19, r19
 15c:	88 0f       	add	r24, r24
 15e:	99 1f       	adc	r25, r25
 160:	88 0f       	add	r24, r24
 162:	99 1f       	adc	r25, r25
 164:	88 0f       	add	r24, r24
 166:	99 1f       	adc	r25, r25
 168:	82 0f       	add	r24, r18
 16a:	93 1f       	adc	r25, r19
 16c:	48 1b       	sub	r20, r24
 16e:	59 0b       	sbc	r21, r25
 170:	fa 01       	movw	r30, r20
 172:	e0 5a       	subi	r30, 0xA0	; 160
 174:	ff 4f       	sbci	r31, 0xFF	; 255
 176:	80 81       	ld	r24, Z
 178:	8a 83       	std	Y+2, r24	; 0x02
	_number /= 10;
	DISPLAY_BUFFER[3] = DIGIT[_number % 10];
 17a:	98 01       	movw	r18, r16
 17c:	36 95       	lsr	r19
 17e:	27 95       	ror	r18
 180:	36 95       	lsr	r19
 182:	27 95       	ror	r18
 184:	36 95       	lsr	r19
 186:	27 95       	ror	r18
 188:	a5 ec       	ldi	r26, 0xC5	; 197
 18a:	b0 e2       	ldi	r27, 0x20	; 32
 18c:	0e 94 af 04 	call	0x95e	; 0x95e <__umulhisi3>
 190:	ac 01       	movw	r20, r24
 192:	52 95       	swap	r21
 194:	42 95       	swap	r20
 196:	4f 70       	andi	r20, 0x0F	; 15
 198:	45 27       	eor	r20, r21
 19a:	5f 70       	andi	r21, 0x0F	; 15
 19c:	45 27       	eor	r20, r21
 19e:	9a 01       	movw	r18, r20
 1a0:	ad ec       	ldi	r26, 0xCD	; 205
 1a2:	bc ec       	ldi	r27, 0xCC	; 204
 1a4:	0e 94 af 04 	call	0x95e	; 0x95e <__umulhisi3>
 1a8:	96 95       	lsr	r25
 1aa:	87 95       	ror	r24
 1ac:	96 95       	lsr	r25
 1ae:	87 95       	ror	r24
 1b0:	96 95       	lsr	r25
 1b2:	87 95       	ror	r24
 1b4:	9c 01       	movw	r18, r24
 1b6:	22 0f       	add	r18, r18
 1b8:	33 1f       	adc	r19, r19
 1ba:	88 0f       	add	r24, r24
 1bc:	99 1f       	adc	r25, r25
 1be:	88 0f       	add	r24, r24
 1c0:	99 1f       	adc	r25, r25
 1c2:	88 0f       	add	r24, r24
 1c4:	99 1f       	adc	r25, r25
 1c6:	82 0f       	add	r24, r18
 1c8:	93 1f       	adc	r25, r19
 1ca:	48 1b       	sub	r20, r24
 1cc:	59 0b       	sbc	r21, r25
 1ce:	fa 01       	movw	r30, r20
 1d0:	e0 5a       	subi	r30, 0xA0	; 160
 1d2:	ff 4f       	sbci	r31, 0xFF	; 255
 1d4:	80 81       	ld	r24, Z
 1d6:	8b 83       	std	Y+3, r24	; 0x03
}	
 1d8:	df 91       	pop	r29
 1da:	cf 91       	pop	r28
 1dc:	1f 91       	pop	r17
 1de:	0f 91       	pop	r16
 1e0:	08 95       	ret

000001e2 <display>:

void display()
{
	PORTB |= 0b00001111;
 1e2:	88 b3       	in	r24, 0x18	; 24
 1e4:	8f 60       	ori	r24, 0x0F	; 15
 1e6:	88 bb       	out	0x18, r24	; 24
	PORTB &= 0b11111110;
 1e8:	c0 98       	cbi	0x18, 0	; 24
	PORTC = DISPLAY_BUFFER[3];
 1ea:	e6 e7       	ldi	r30, 0x76	; 118
 1ec:	f0 e0       	ldi	r31, 0x00	; 0
 1ee:	83 81       	ldd	r24, Z+3	; 0x03
 1f0:	85 bb       	out	0x15, r24	; 21
	#else
		//round up by default
		__ticks_dc = (uint32_t)(ceil(fabs(__tmp)));
	#endif

	__builtin_avr_delay_cycles(__ticks_dc);
 1f2:	8f e9       	ldi	r24, 0x9F	; 159
 1f4:	9f e0       	ldi	r25, 0x0F	; 15
 1f6:	01 97       	sbiw	r24, 0x01	; 1
 1f8:	f1 f7       	brne	.-4      	; 0x1f6 <display+0x14>
 1fa:	00 c0       	rjmp	.+0      	; 0x1fc <display+0x1a>
 1fc:	00 00       	nop
	_delay_ms(MULTIPLEX_DELAY_MS);
	PORTB |= 0b00001111;
 1fe:	88 b3       	in	r24, 0x18	; 24
 200:	8f 60       	ori	r24, 0x0F	; 15
 202:	88 bb       	out	0x18, r24	; 24
	PORTB &= 0b11111101;
 204:	c1 98       	cbi	0x18, 1	; 24
	PORTC = DISPLAY_BUFFER[2];
 206:	82 81       	ldd	r24, Z+2	; 0x02
 208:	85 bb       	out	0x15, r24	; 21
 20a:	8f e9       	ldi	r24, 0x9F	; 159
 20c:	9f e0       	ldi	r25, 0x0F	; 15
 20e:	01 97       	sbiw	r24, 0x01	; 1
 210:	f1 f7       	brne	.-4      	; 0x20e <display+0x2c>
 212:	00 c0       	rjmp	.+0      	; 0x214 <display+0x32>
 214:	00 00       	nop
	_delay_ms(MULTIPLEX_DELAY_MS);
	PORTB |= 0b00001111;
 216:	88 b3       	in	r24, 0x18	; 24
 218:	8f 60       	ori	r24, 0x0F	; 15
 21a:	88 bb       	out	0x18, r24	; 24
	PORTB &= 0b11111011;
 21c:	c2 98       	cbi	0x18, 2	; 24
	PORTC = DISPLAY_BUFFER[1];
 21e:	81 81       	ldd	r24, Z+1	; 0x01
 220:	85 bb       	out	0x15, r24	; 21
 222:	8f e9       	ldi	r24, 0x9F	; 159
 224:	9f e0       	ldi	r25, 0x0F	; 15
 226:	01 97       	sbiw	r24, 0x01	; 1
 228:	f1 f7       	brne	.-4      	; 0x226 <display+0x44>
 22a:	00 c0       	rjmp	.+0      	; 0x22c <display+0x4a>
 22c:	00 00       	nop
	_delay_ms(MULTIPLEX_DELAY_MS);
	PORTB |= 0b00001111;
 22e:	88 b3       	in	r24, 0x18	; 24
 230:	8f 60       	ori	r24, 0x0F	; 15
 232:	88 bb       	out	0x18, r24	; 24
	PORTB &= 0b11110111;
 234:	c3 98       	cbi	0x18, 3	; 24
	PORTC = DISPLAY_BUFFER[0];
 236:	80 81       	ld	r24, Z
 238:	85 bb       	out	0x15, r24	; 21
 23a:	8f e9       	ldi	r24, 0x9F	; 159
 23c:	9f e0       	ldi	r25, 0x0F	; 15
 23e:	01 97       	sbiw	r24, 0x01	; 1
 240:	f1 f7       	brne	.-4      	; 0x23e <display+0x5c>
 242:	00 c0       	rjmp	.+0      	; 0x244 <display+0x62>
 244:	00 00       	nop
	_delay_ms(MULTIPLEX_DELAY_MS);
	PORTC = 0xFF;
 246:	8f ef       	ldi	r24, 0xFF	; 255
 248:	85 bb       	out	0x15, r24	; 21
 24a:	08 95       	ret

0000024c <main>:
#include "usart.h"
#include "pwm.h"

int main(void)
{
	TARGET_TICKS = 13;
 24c:	8d e0       	ldi	r24, 0x0D	; 13
 24e:	90 e0       	ldi	r25, 0x00	; 0
 250:	90 93 99 00 	sts	0x0099, r25	; 0x800099 <TARGET_TICKS+0x1>
 254:	80 93 98 00 	sts	0x0098, r24	; 0x800098 <TARGET_TICKS>
    init_display();
 258:	0e 94 49 00 	call	0x92	; 0x92 <init_display>
	init_optocoupler();
 25c:	0e 94 4f 01 	call	0x29e	; 0x29e <init_optocoupler>
	init_pid();
 260:	0e 94 5e 01 	call	0x2bc	; 0x2bc <init_pid>
	USART_Init(MYUBRR);
 264:	89 e1       	ldi	r24, 0x19	; 25
 266:	90 e0       	ldi	r25, 0x00	; 0
 268:	0e 94 e4 02 	call	0x5c8	; 0x5c8 <USART_Init>
	init_pwm();
 26c:	0e 94 d4 02 	call	0x5a8	; 0x5a8 <init_pwm>
	dummy = 90;
 270:	8a e5       	ldi	r24, 0x5A	; 90
 272:	90 e0       	ldi	r25, 0x00	; 0
 274:	90 93 9b 00 	sts	0x009B, r25	; 0x80009b <dummy+0x1>
 278:	80 93 9a 00 	sts	0x009A, r24	; 0x80009a <dummy>
	OCR1A = 0;
 27c:	1b bc       	out	0x2b, r1	; 43
 27e:	1a bc       	out	0x2a, r1	; 42
	sei();
 280:	78 94       	sei
	OCR1B = 0;
 282:	19 bc       	out	0x29, r1	; 41
 284:	18 bc       	out	0x28, r1	; 40
 286:	2f ef       	ldi	r18, 0xFF	; 255
 288:	80 e7       	ldi	r24, 0x70	; 112
 28a:	92 e0       	ldi	r25, 0x02	; 2
 28c:	21 50       	subi	r18, 0x01	; 1
 28e:	80 40       	sbci	r24, 0x00	; 0
 290:	90 40       	sbci	r25, 0x00	; 0
 292:	e1 f7       	brne	.-8      	; 0x28c <main+0x40>
 294:	00 c0       	rjmp	.+0      	; 0x296 <main+0x4a>
 296:	00 00       	nop
	_delay_ms(50);

    while (1)
    {
		display();
 298:	0e 94 f1 00 	call	0x1e2	; 0x1e2 <display>
 29c:	fd cf       	rjmp	.-6      	; 0x298 <main+0x4c>

0000029e <init_optocoupler>:
	}
	if(OCR1B > ICR1)
	{
		OCR1B = ICR1;
	}
}
 29e:	10 92 8f 00 	sts	0x008F, r1	; 0x80008f <INT0_CNT+0x1>
 2a2:	10 92 8e 00 	sts	0x008E, r1	; 0x80008e <INT0_CNT>
 2a6:	10 92 93 00 	sts	0x0093, r1	; 0x800093 <REVOLUTIONS+0x1>
 2aa:	10 92 92 00 	sts	0x0092, r1	; 0x800092 <REVOLUTIONS>
 2ae:	8a 98       	cbi	0x11, 2	; 17
 2b0:	92 9a       	sbi	0x12, 2	; 18
 2b2:	80 e4       	ldi	r24, 0x40	; 64
 2b4:	8b bf       	out	0x3b, r24	; 59
 2b6:	81 e0       	ldi	r24, 0x01	; 1
 2b8:	85 bf       	out	0x35, r24	; 53
 2ba:	08 95       	ret

000002bc <init_pid>:
 2bc:	83 b7       	in	r24, 0x33	; 51
 2be:	85 60       	ori	r24, 0x05	; 5
 2c0:	83 bf       	out	0x33, r24	; 51
 2c2:	12 be       	out	0x32, r1	; 50
 2c4:	89 b7       	in	r24, 0x39	; 57
 2c6:	81 60       	ori	r24, 0x01	; 1
 2c8:	89 bf       	out	0x39, r24	; 57
 2ca:	10 92 91 00 	sts	0x0091, r1	; 0x800091 <REVOLUTIONS_PER_MINUTE+0x1>
 2ce:	10 92 90 00 	sts	0x0090, r1	; 0x800090 <REVOLUTIONS_PER_MINUTE>
 2d2:	10 92 95 00 	sts	0x0095, r1	; 0x800095 <TICKS+0x1>
 2d6:	10 92 94 00 	sts	0x0094, r1	; 0x800094 <TICKS>
 2da:	08 95       	ret

000002dc <pid>:
 2dc:	4f 92       	push	r4
 2de:	5f 92       	push	r5
 2e0:	6f 92       	push	r6
 2e2:	7f 92       	push	r7
 2e4:	8f 92       	push	r8
 2e6:	9f 92       	push	r9
 2e8:	af 92       	push	r10
 2ea:	bf 92       	push	r11
 2ec:	cf 92       	push	r12
 2ee:	df 92       	push	r13
 2f0:	ef 92       	push	r14
 2f2:	ff 92       	push	r15
 2f4:	80 91 94 00 	lds	r24, 0x0094	; 0x800094 <TICKS>
 2f8:	90 91 95 00 	lds	r25, 0x0095	; 0x800095 <TICKS+0x1>
 2fc:	60 91 98 00 	lds	r22, 0x0098	; 0x800098 <TARGET_TICKS>
 300:	70 91 99 00 	lds	r23, 0x0099	; 0x800099 <TARGET_TICKS+0x1>
 304:	68 1b       	sub	r22, r24
 306:	79 0b       	sbc	r23, r25
 308:	07 2e       	mov	r0, r23
 30a:	00 0c       	add	r0, r0
 30c:	88 0b       	sbc	r24, r24
 30e:	99 0b       	sbc	r25, r25
 310:	0e 94 8d 03 	call	0x71a	; 0x71a <__floatsisf>
 314:	6b 01       	movw	r12, r22
 316:	7c 01       	movw	r14, r24
 318:	60 93 8a 00 	sts	0x008A, r22	; 0x80008a <error>
 31c:	70 93 8b 00 	sts	0x008B, r23	; 0x80008b <error+0x1>
 320:	80 93 8c 00 	sts	0x008C, r24	; 0x80008c <error+0x2>
 324:	90 93 8d 00 	sts	0x008D, r25	; 0x80008d <error+0x3>
 328:	20 91 86 00 	lds	r18, 0x0086	; 0x800086 <integral>
 32c:	30 91 87 00 	lds	r19, 0x0087	; 0x800087 <integral+0x1>
 330:	40 91 88 00 	lds	r20, 0x0088	; 0x800088 <integral+0x2>
 334:	50 91 89 00 	lds	r21, 0x0089	; 0x800089 <integral+0x3>
 338:	0e 94 f0 02 	call	0x5e0	; 0x5e0 <__addsf3>
 33c:	4b 01       	movw	r8, r22
 33e:	5c 01       	movw	r10, r24
 340:	20 e0       	ldi	r18, 0x00	; 0
 342:	30 e8       	ldi	r19, 0x80	; 128
 344:	4b eb       	ldi	r20, 0xBB	; 187
 346:	54 e4       	ldi	r21, 0x44	; 68
 348:	0e 94 3d 04 	call	0x87a	; 0x87a <__gesf2>
 34c:	18 16       	cp	r1, r24
 34e:	4c f0       	brlt	.+18     	; 0x362 <pid+0x86>
 350:	80 92 86 00 	sts	0x0086, r8	; 0x800086 <integral>
 354:	90 92 87 00 	sts	0x0087, r9	; 0x800087 <integral+0x1>
 358:	a0 92 88 00 	sts	0x0088, r10	; 0x800088 <integral+0x2>
 35c:	b0 92 89 00 	sts	0x0089, r11	; 0x800089 <integral+0x3>
 360:	0c c0       	rjmp	.+24     	; 0x37a <pid+0x9e>
 362:	80 e0       	ldi	r24, 0x00	; 0
 364:	90 e8       	ldi	r25, 0x80	; 128
 366:	ab eb       	ldi	r26, 0xBB	; 187
 368:	b4 e4       	ldi	r27, 0x44	; 68
 36a:	80 93 86 00 	sts	0x0086, r24	; 0x800086 <integral>
 36e:	90 93 87 00 	sts	0x0087, r25	; 0x800087 <integral+0x1>
 372:	a0 93 88 00 	sts	0x0088, r26	; 0x800088 <integral+0x2>
 376:	b0 93 89 00 	sts	0x0089, r27	; 0x800089 <integral+0x3>
 37a:	a7 01       	movw	r20, r14
 37c:	96 01       	movw	r18, r12
 37e:	60 91 7e 00 	lds	r22, 0x007E	; 0x80007e <previous_error>
 382:	70 91 7f 00 	lds	r23, 0x007F	; 0x80007f <previous_error+0x1>
 386:	80 91 80 00 	lds	r24, 0x0080	; 0x800080 <previous_error+0x2>
 38a:	90 91 81 00 	lds	r25, 0x0081	; 0x800081 <previous_error+0x3>
 38e:	0e 94 ef 02 	call	0x5de	; 0x5de <__subsf3>
 392:	4b 01       	movw	r8, r22
 394:	5c 01       	movw	r10, r24
 396:	60 93 82 00 	sts	0x0082, r22	; 0x800082 <derivative>
 39a:	70 93 83 00 	sts	0x0083, r23	; 0x800083 <derivative+0x1>
 39e:	80 93 84 00 	sts	0x0084, r24	; 0x800084 <derivative+0x2>
 3a2:	90 93 85 00 	sts	0x0085, r25	; 0x800085 <derivative+0x3>
 3a6:	20 91 86 00 	lds	r18, 0x0086	; 0x800086 <integral>
 3aa:	30 91 87 00 	lds	r19, 0x0087	; 0x800087 <integral+0x1>
 3ae:	40 91 88 00 	lds	r20, 0x0088	; 0x800088 <integral+0x2>
 3b2:	50 91 89 00 	lds	r21, 0x0089	; 0x800089 <integral+0x3>
 3b6:	60 91 6e 00 	lds	r22, 0x006E	; 0x80006e <KI>
 3ba:	70 91 6f 00 	lds	r23, 0x006F	; 0x80006f <KI+0x1>
 3be:	80 91 70 00 	lds	r24, 0x0070	; 0x800070 <KI+0x2>
 3c2:	90 91 71 00 	lds	r25, 0x0071	; 0x800071 <KI+0x3>
 3c6:	0e 94 42 04 	call	0x884	; 0x884 <__mulsf3>
 3ca:	2b 01       	movw	r4, r22
 3cc:	3c 01       	movw	r6, r24
 3ce:	20 91 72 00 	lds	r18, 0x0072	; 0x800072 <KP>
 3d2:	30 91 73 00 	lds	r19, 0x0073	; 0x800073 <KP+0x1>
 3d6:	40 91 74 00 	lds	r20, 0x0074	; 0x800074 <KP+0x2>
 3da:	50 91 75 00 	lds	r21, 0x0075	; 0x800075 <KP+0x3>
 3de:	c7 01       	movw	r24, r14
 3e0:	b6 01       	movw	r22, r12
 3e2:	0e 94 42 04 	call	0x884	; 0x884 <__mulsf3>
 3e6:	9b 01       	movw	r18, r22
 3e8:	ac 01       	movw	r20, r24
 3ea:	c3 01       	movw	r24, r6
 3ec:	b2 01       	movw	r22, r4
 3ee:	0e 94 f0 02 	call	0x5e0	; 0x5e0 <__addsf3>
 3f2:	6b 01       	movw	r12, r22
 3f4:	7c 01       	movw	r14, r24
 3f6:	20 91 6a 00 	lds	r18, 0x006A	; 0x80006a <KD>
 3fa:	30 91 6b 00 	lds	r19, 0x006B	; 0x80006b <KD+0x1>
 3fe:	40 91 6c 00 	lds	r20, 0x006C	; 0x80006c <KD+0x2>
 402:	50 91 6d 00 	lds	r21, 0x006D	; 0x80006d <KD+0x3>
 406:	c5 01       	movw	r24, r10
 408:	b4 01       	movw	r22, r8
 40a:	0e 94 42 04 	call	0x884	; 0x884 <__mulsf3>
 40e:	9b 01       	movw	r18, r22
 410:	ac 01       	movw	r20, r24
 412:	c7 01       	movw	r24, r14
 414:	b6 01       	movw	r22, r12
 416:	0e 94 f0 02 	call	0x5e0	; 0x5e0 <__addsf3>
 41a:	60 93 7a 00 	sts	0x007A, r22	; 0x80007a <pid_result>
 41e:	70 93 7b 00 	sts	0x007B, r23	; 0x80007b <pid_result+0x1>
 422:	80 93 7c 00 	sts	0x007C, r24	; 0x80007c <pid_result+0x2>
 426:	90 93 7d 00 	sts	0x007D, r25	; 0x80007d <pid_result+0x3>
 42a:	0e 94 5c 03 	call	0x6b8	; 0x6b8 <__fixunssfsi>
 42e:	79 bd       	out	0x29, r23	; 41
 430:	68 bd       	out	0x28, r22	; 40
 432:	28 b5       	in	r18, 0x28	; 40
 434:	39 b5       	in	r19, 0x29	; 41
 436:	86 b5       	in	r24, 0x26	; 38
 438:	97 b5       	in	r25, 0x27	; 39
 43a:	82 17       	cp	r24, r18
 43c:	93 07       	cpc	r25, r19
 43e:	20 f4       	brcc	.+8      	; 0x448 <__LOCK_REGION_LENGTH__+0x48>
 440:	86 b5       	in	r24, 0x26	; 38
 442:	97 b5       	in	r25, 0x27	; 39
 444:	99 bd       	out	0x29, r25	; 41
 446:	88 bd       	out	0x28, r24	; 40
 448:	80 91 8a 00 	lds	r24, 0x008A	; 0x80008a <error>
 44c:	90 91 8b 00 	lds	r25, 0x008B	; 0x80008b <error+0x1>
 450:	a0 91 8c 00 	lds	r26, 0x008C	; 0x80008c <error+0x2>
 454:	b0 91 8d 00 	lds	r27, 0x008D	; 0x80008d <error+0x3>
 458:	80 93 7e 00 	sts	0x007E, r24	; 0x80007e <previous_error>
 45c:	90 93 7f 00 	sts	0x007F, r25	; 0x80007f <previous_error+0x1>
 460:	a0 93 80 00 	sts	0x0080, r26	; 0x800080 <previous_error+0x2>
 464:	b0 93 81 00 	sts	0x0081, r27	; 0x800081 <previous_error+0x3>
 468:	ff 90       	pop	r15
 46a:	ef 90       	pop	r14
 46c:	df 90       	pop	r13
 46e:	cf 90       	pop	r12
 470:	bf 90       	pop	r11
 472:	af 90       	pop	r10
 474:	9f 90       	pop	r9
 476:	8f 90       	pop	r8
 478:	7f 90       	pop	r7
 47a:	6f 90       	pop	r6
 47c:	5f 90       	pop	r5
 47e:	4f 90       	pop	r4
 480:	08 95       	ret

00000482 <__vector_1>:

ISR(INT0_vect)  // external interrupt_zero ISR (INT0)
{
 482:	1f 92       	push	r1
 484:	0f 92       	push	r0
 486:	0f b6       	in	r0, 0x3f	; 63
 488:	0f 92       	push	r0
 48a:	11 24       	eor	r1, r1
 48c:	2f 93       	push	r18
 48e:	8f 93       	push	r24
 490:	9f 93       	push	r25
	INT0_CNT++;
 492:	80 91 8e 00 	lds	r24, 0x008E	; 0x80008e <INT0_CNT>
 496:	90 91 8f 00 	lds	r25, 0x008F	; 0x80008f <INT0_CNT+0x1>
 49a:	01 96       	adiw	r24, 0x01	; 1
 49c:	90 93 8f 00 	sts	0x008F, r25	; 0x80008f <INT0_CNT+0x1>
 4a0:	80 93 8e 00 	sts	0x008E, r24	; 0x80008e <INT0_CNT>
	TICKS ++;
 4a4:	80 91 94 00 	lds	r24, 0x0094	; 0x800094 <TICKS>
 4a8:	90 91 95 00 	lds	r25, 0x0095	; 0x800095 <TICKS+0x1>
 4ac:	01 96       	adiw	r24, 0x01	; 1
 4ae:	90 93 95 00 	sts	0x0095, r25	; 0x800095 <TICKS+0x1>
 4b2:	80 93 94 00 	sts	0x0094, r24	; 0x800094 <TICKS>
	if(INT0_CNT >= TICKS_PER_REVOLUTION)
 4b6:	80 91 8e 00 	lds	r24, 0x008E	; 0x80008e <INT0_CNT>
 4ba:	90 91 8f 00 	lds	r25, 0x008F	; 0x80008f <INT0_CNT+0x1>
 4be:	84 39       	cpi	r24, 0x94	; 148
 4c0:	92 40       	sbci	r25, 0x02	; 2
 4c2:	4c f0       	brlt	.+18     	; 0x4d6 <__vector_1+0x54>
	{
		REVOLUTIONS ++;
 4c4:	80 91 92 00 	lds	r24, 0x0092	; 0x800092 <REVOLUTIONS>
 4c8:	90 91 93 00 	lds	r25, 0x0093	; 0x800093 <REVOLUTIONS+0x1>
 4cc:	01 96       	adiw	r24, 0x01	; 1
 4ce:	90 93 93 00 	sts	0x0093, r25	; 0x800093 <REVOLUTIONS+0x1>
 4d2:	80 93 92 00 	sts	0x0092, r24	; 0x800092 <REVOLUTIONS>
		// USART_Transmit(REVOLUTIONS);
	}
}
 4d6:	9f 91       	pop	r25
 4d8:	8f 91       	pop	r24
 4da:	2f 91       	pop	r18
 4dc:	0f 90       	pop	r0
 4de:	0f be       	out	0x3f, r0	; 63
 4e0:	0f 90       	pop	r0
 4e2:	1f 90       	pop	r1
 4e4:	18 95       	reti

000004e6 <__vector_11>:

// every 16.384 ms
ISR(TIMER0_OVF_vect)
{
 4e6:	1f 92       	push	r1
 4e8:	0f 92       	push	r0
 4ea:	0f b6       	in	r0, 0x3f	; 63
 4ec:	0f 92       	push	r0
 4ee:	11 24       	eor	r1, r1
 4f0:	2f 93       	push	r18
 4f2:	3f 93       	push	r19
 4f4:	4f 93       	push	r20
 4f6:	5f 93       	push	r21
 4f8:	6f 93       	push	r22
 4fa:	7f 93       	push	r23
 4fc:	8f 93       	push	r24
 4fe:	9f 93       	push	r25
 500:	af 93       	push	r26
 502:	bf 93       	push	r27
 504:	ef 93       	push	r30
 506:	ff 93       	push	r31
	TIMER0_CNT ++;
 508:	80 91 96 00 	lds	r24, 0x0096	; 0x800096 <TIMER0_CNT>
 50c:	90 91 97 00 	lds	r25, 0x0097	; 0x800097 <TIMER0_CNT+0x1>
 510:	01 96       	adiw	r24, 0x01	; 1
 512:	90 93 97 00 	sts	0x0097, r25	; 0x800097 <TIMER0_CNT+0x1>
 516:	80 93 96 00 	sts	0x0096, r24	; 0x800096 <TIMER0_CNT>
	pid();
 51a:	0e 94 6e 01 	call	0x2dc	; 0x2dc <pid>
	//fuzzy();
	if(TIMER0_CNT >= 10)
 51e:	80 91 96 00 	lds	r24, 0x0096	; 0x800096 <TIMER0_CNT>
 522:	90 91 97 00 	lds	r25, 0x0097	; 0x800097 <TIMER0_CNT+0x1>
 526:	0a 97       	sbiw	r24, 0x0a	; 10
 528:	54 f0       	brlt	.+20     	; 0x53e <__vector_11+0x58>
	{
		update_display_buffer(TICKS);
 52a:	80 91 94 00 	lds	r24, 0x0094	; 0x800094 <TICKS>
 52e:	90 91 95 00 	lds	r25, 0x0095	; 0x800095 <TICKS+0x1>
 532:	0e 94 53 00 	call	0xa6	; 0xa6 <update_display_buffer>
		TIMER0_CNT = 0;
 536:	10 92 97 00 	sts	0x0097, r1	; 0x800097 <TIMER0_CNT+0x1>
 53a:	10 92 96 00 	sts	0x0096, r1	; 0x800096 <TIMER0_CNT>
	}
	USART_Transmit(255);
 53e:	8f ef       	ldi	r24, 0xFF	; 255
 540:	0e 94 eb 02 	call	0x5d6	; 0x5d6 <USART_Transmit>
	USART_Transmit(TARGET_TICKS);
 544:	80 91 98 00 	lds	r24, 0x0098	; 0x800098 <TARGET_TICKS>
 548:	0e 94 eb 02 	call	0x5d6	; 0x5d6 <USART_Transmit>
	USART_Transmit(TICKS);
 54c:	80 91 94 00 	lds	r24, 0x0094	; 0x800094 <TICKS>
 550:	90 91 95 00 	lds	r25, 0x0095	; 0x800095 <TICKS+0x1>
 554:	0e 94 eb 02 	call	0x5d6	; 0x5d6 <USART_Transmit>
	USART_Transmit(error);
 558:	60 91 8a 00 	lds	r22, 0x008A	; 0x80008a <error>
 55c:	70 91 8b 00 	lds	r23, 0x008B	; 0x80008b <error+0x1>
 560:	80 91 8c 00 	lds	r24, 0x008C	; 0x80008c <error+0x2>
 564:	90 91 8d 00 	lds	r25, 0x008D	; 0x80008d <error+0x3>
 568:	0e 94 5c 03 	call	0x6b8	; 0x6b8 <__fixunssfsi>
 56c:	86 2f       	mov	r24, r22
 56e:	0e 94 eb 02 	call	0x5d6	; 0x5d6 <USART_Transmit>
	USART_Transmit(0);
 572:	80 e0       	ldi	r24, 0x00	; 0
 574:	0e 94 eb 02 	call	0x5d6	; 0x5d6 <USART_Transmit>
	USART_Transmit(0);
 578:	80 e0       	ldi	r24, 0x00	; 0
 57a:	0e 94 eb 02 	call	0x5d6	; 0x5d6 <USART_Transmit>
	//USART_Transmit((unsigned char)(error));
	//update_display_buffer(REVOLUTIONS_PER_MINUTE);
	TICKS = 0;
 57e:	10 92 95 00 	sts	0x0095, r1	; 0x800095 <TICKS+0x1>
 582:	10 92 94 00 	sts	0x0094, r1	; 0x800094 <TICKS>
 586:	ff 91       	pop	r31
 588:	ef 91       	pop	r30
 58a:	bf 91       	pop	r27
 58c:	af 91       	pop	r26
 58e:	9f 91       	pop	r25
 590:	8f 91       	pop	r24
 592:	7f 91       	pop	r23
 594:	6f 91       	pop	r22
 596:	5f 91       	pop	r21
 598:	4f 91       	pop	r20
 59a:	3f 91       	pop	r19
 59c:	2f 91       	pop	r18
 59e:	0f 90       	pop	r0
 5a0:	0f be       	out	0x3f, r0	; 63
 5a2:	0f 90       	pop	r0
 5a4:	1f 90       	pop	r1
 5a6:	18 95       	reti

000005a8 <init_pwm>:

#include "global.h"

void init_pwm(void)
{
	DDRD |= 0b00110000;
 5a8:	81 b3       	in	r24, 0x11	; 17
 5aa:	80 63       	ori	r24, 0x30	; 48
 5ac:	81 bb       	out	0x11, r24	; 17
	ICR1 = 1200; /*CUSTOM TOP OF TIMER1*/
 5ae:	80 eb       	ldi	r24, 0xB0	; 176
 5b0:	94 e0       	ldi	r25, 0x04	; 4
 5b2:	97 bd       	out	0x27, r25	; 39
 5b4:	86 bd       	out	0x26, r24	; 38
	TCCR1A = 0b10100010; /*SET PWM ON BOTH PD4 AND PD5*/
 5b6:	82 ea       	ldi	r24, 0xA2	; 162
 5b8:	8f bd       	out	0x2f, r24	; 47
	TCCR1B = 0b00011001; /*0x19*/
 5ba:	89 e1       	ldi	r24, 0x19	; 25
 5bc:	8e bd       	out	0x2e, r24	; 46
	OCR1A = 0; /*FACTOR DE UMPLERE PWM1: 0-256*/
 5be:	1b bc       	out	0x2b, r1	; 43
 5c0:	1a bc       	out	0x2a, r1	; 42
	OCR1B = 0; /*FACTOR DE UMPLERE PWM2: 0:256*/
 5c2:	19 bc       	out	0x29, r1	; 41
 5c4:	18 bc       	out	0x28, r1	; 40
 5c6:	08 95       	ret

000005c8 <USART_Init>:
#include "usart.h"

void USART_Init( unsigned int ubrr)
{
	/*Set baud rate */
	UBRRH = (unsigned char)(ubrr>>8);
 5c8:	90 bd       	out	0x20, r25	; 32
	UBRRL = (unsigned char)ubrr;
 5ca:	89 b9       	out	0x09, r24	; 9
	
	/*Enable receiver and transmitter */
	UCSRB = (1<<RXEN)|(1<<TXEN);
 5cc:	88 e1       	ldi	r24, 0x18	; 24
 5ce:	8a b9       	out	0x0a, r24	; 10
	
	/* Set frame format: 8data, 2stop bit */
	UCSRC = (1<<URSEL)|(1<<USBS)|(3<<UCSZ0);
 5d0:	8e e8       	ldi	r24, 0x8E	; 142
 5d2:	80 bd       	out	0x20, r24	; 32
 5d4:	08 95       	ret

000005d6 <USART_Transmit>:
	}

void USART_Transmit( unsigned char data)
{
	/* Wait for empty transmit buffer */
	while ( !( UCSRA & (1<<UDRE)) )
 5d6:	5d 9b       	sbis	0x0b, 5	; 11
 5d8:	fe cf       	rjmp	.-4      	; 0x5d6 <USART_Transmit>
	;
	/* Put data into buffer, sends the data */
	UDR = data;
 5da:	8c b9       	out	0x0c, r24	; 12
 5dc:	08 95       	ret

000005de <__subsf3>:
 5de:	50 58       	subi	r21, 0x80	; 128

000005e0 <__addsf3>:
 5e0:	bb 27       	eor	r27, r27
 5e2:	aa 27       	eor	r26, r26
 5e4:	0e 94 07 03 	call	0x60e	; 0x60e <__addsf3x>
 5e8:	0c 94 03 04 	jmp	0x806	; 0x806 <__fp_round>
 5ec:	0e 94 f5 03 	call	0x7ea	; 0x7ea <__fp_pscA>
 5f0:	38 f0       	brcs	.+14     	; 0x600 <__addsf3+0x20>
 5f2:	0e 94 fc 03 	call	0x7f8	; 0x7f8 <__fp_pscB>
 5f6:	20 f0       	brcs	.+8      	; 0x600 <__addsf3+0x20>
 5f8:	39 f4       	brne	.+14     	; 0x608 <__addsf3+0x28>
 5fa:	9f 3f       	cpi	r25, 0xFF	; 255
 5fc:	19 f4       	brne	.+6      	; 0x604 <__addsf3+0x24>
 5fe:	26 f4       	brtc	.+8      	; 0x608 <__addsf3+0x28>
 600:	0c 94 f2 03 	jmp	0x7e4	; 0x7e4 <__fp_nan>
 604:	0e f4       	brtc	.+2      	; 0x608 <__addsf3+0x28>
 606:	e0 95       	com	r30
 608:	e7 fb       	bst	r30, 7
 60a:	0c 94 ec 03 	jmp	0x7d8	; 0x7d8 <__fp_inf>

0000060e <__addsf3x>:
 60e:	e9 2f       	mov	r30, r25
 610:	0e 94 14 04 	call	0x828	; 0x828 <__fp_split3>
 614:	58 f3       	brcs	.-42     	; 0x5ec <__addsf3+0xc>
 616:	ba 17       	cp	r27, r26
 618:	62 07       	cpc	r22, r18
 61a:	73 07       	cpc	r23, r19
 61c:	84 07       	cpc	r24, r20
 61e:	95 07       	cpc	r25, r21
 620:	20 f0       	brcs	.+8      	; 0x62a <__addsf3x+0x1c>
 622:	79 f4       	brne	.+30     	; 0x642 <__addsf3x+0x34>
 624:	a6 f5       	brtc	.+104    	; 0x68e <__addsf3x+0x80>
 626:	0c 94 36 04 	jmp	0x86c	; 0x86c <__fp_zero>
 62a:	0e f4       	brtc	.+2      	; 0x62e <__addsf3x+0x20>
 62c:	e0 95       	com	r30
 62e:	0b 2e       	mov	r0, r27
 630:	ba 2f       	mov	r27, r26
 632:	a0 2d       	mov	r26, r0
 634:	0b 01       	movw	r0, r22
 636:	b9 01       	movw	r22, r18
 638:	90 01       	movw	r18, r0
 63a:	0c 01       	movw	r0, r24
 63c:	ca 01       	movw	r24, r20
 63e:	a0 01       	movw	r20, r0
 640:	11 24       	eor	r1, r1
 642:	ff 27       	eor	r31, r31
 644:	59 1b       	sub	r21, r25
 646:	99 f0       	breq	.+38     	; 0x66e <__addsf3x+0x60>
 648:	59 3f       	cpi	r21, 0xF9	; 249
 64a:	50 f4       	brcc	.+20     	; 0x660 <__addsf3x+0x52>
 64c:	50 3e       	cpi	r21, 0xE0	; 224
 64e:	68 f1       	brcs	.+90     	; 0x6aa <__addsf3x+0x9c>
 650:	1a 16       	cp	r1, r26
 652:	f0 40       	sbci	r31, 0x00	; 0
 654:	a2 2f       	mov	r26, r18
 656:	23 2f       	mov	r18, r19
 658:	34 2f       	mov	r19, r20
 65a:	44 27       	eor	r20, r20
 65c:	58 5f       	subi	r21, 0xF8	; 248
 65e:	f3 cf       	rjmp	.-26     	; 0x646 <__addsf3x+0x38>
 660:	46 95       	lsr	r20
 662:	37 95       	ror	r19
 664:	27 95       	ror	r18
 666:	a7 95       	ror	r26
 668:	f0 40       	sbci	r31, 0x00	; 0
 66a:	53 95       	inc	r21
 66c:	c9 f7       	brne	.-14     	; 0x660 <__addsf3x+0x52>
 66e:	7e f4       	brtc	.+30     	; 0x68e <__addsf3x+0x80>
 670:	1f 16       	cp	r1, r31
 672:	ba 0b       	sbc	r27, r26
 674:	62 0b       	sbc	r22, r18
 676:	73 0b       	sbc	r23, r19
 678:	84 0b       	sbc	r24, r20
 67a:	ba f0       	brmi	.+46     	; 0x6aa <__addsf3x+0x9c>
 67c:	91 50       	subi	r25, 0x01	; 1
 67e:	a1 f0       	breq	.+40     	; 0x6a8 <__addsf3x+0x9a>
 680:	ff 0f       	add	r31, r31
 682:	bb 1f       	adc	r27, r27
 684:	66 1f       	adc	r22, r22
 686:	77 1f       	adc	r23, r23
 688:	88 1f       	adc	r24, r24
 68a:	c2 f7       	brpl	.-16     	; 0x67c <__addsf3x+0x6e>
 68c:	0e c0       	rjmp	.+28     	; 0x6aa <__addsf3x+0x9c>
 68e:	ba 0f       	add	r27, r26
 690:	62 1f       	adc	r22, r18
 692:	73 1f       	adc	r23, r19
 694:	84 1f       	adc	r24, r20
 696:	48 f4       	brcc	.+18     	; 0x6aa <__addsf3x+0x9c>
 698:	87 95       	ror	r24
 69a:	77 95       	ror	r23
 69c:	67 95       	ror	r22
 69e:	b7 95       	ror	r27
 6a0:	f7 95       	ror	r31
 6a2:	9e 3f       	cpi	r25, 0xFE	; 254
 6a4:	08 f0       	brcs	.+2      	; 0x6a8 <__addsf3x+0x9a>
 6a6:	b0 cf       	rjmp	.-160    	; 0x608 <__addsf3+0x28>
 6a8:	93 95       	inc	r25
 6aa:	88 0f       	add	r24, r24
 6ac:	08 f0       	brcs	.+2      	; 0x6b0 <__addsf3x+0xa2>
 6ae:	99 27       	eor	r25, r25
 6b0:	ee 0f       	add	r30, r30
 6b2:	97 95       	ror	r25
 6b4:	87 95       	ror	r24
 6b6:	08 95       	ret

000006b8 <__fixunssfsi>:
 6b8:	0e 94 1c 04 	call	0x838	; 0x838 <__fp_splitA>
 6bc:	88 f0       	brcs	.+34     	; 0x6e0 <__fixunssfsi+0x28>
 6be:	9f 57       	subi	r25, 0x7F	; 127
 6c0:	98 f0       	brcs	.+38     	; 0x6e8 <__fixunssfsi+0x30>
 6c2:	b9 2f       	mov	r27, r25
 6c4:	99 27       	eor	r25, r25
 6c6:	b7 51       	subi	r27, 0x17	; 23
 6c8:	b0 f0       	brcs	.+44     	; 0x6f6 <__fixunssfsi+0x3e>
 6ca:	e1 f0       	breq	.+56     	; 0x704 <__fixunssfsi+0x4c>
 6cc:	66 0f       	add	r22, r22
 6ce:	77 1f       	adc	r23, r23
 6d0:	88 1f       	adc	r24, r24
 6d2:	99 1f       	adc	r25, r25
 6d4:	1a f0       	brmi	.+6      	; 0x6dc <__fixunssfsi+0x24>
 6d6:	ba 95       	dec	r27
 6d8:	c9 f7       	brne	.-14     	; 0x6cc <__fixunssfsi+0x14>
 6da:	14 c0       	rjmp	.+40     	; 0x704 <__fixunssfsi+0x4c>
 6dc:	b1 30       	cpi	r27, 0x01	; 1
 6de:	91 f0       	breq	.+36     	; 0x704 <__fixunssfsi+0x4c>
 6e0:	0e 94 36 04 	call	0x86c	; 0x86c <__fp_zero>
 6e4:	b1 e0       	ldi	r27, 0x01	; 1
 6e6:	08 95       	ret
 6e8:	0c 94 36 04 	jmp	0x86c	; 0x86c <__fp_zero>
 6ec:	67 2f       	mov	r22, r23
 6ee:	78 2f       	mov	r23, r24
 6f0:	88 27       	eor	r24, r24
 6f2:	b8 5f       	subi	r27, 0xF8	; 248
 6f4:	39 f0       	breq	.+14     	; 0x704 <__fixunssfsi+0x4c>
 6f6:	b9 3f       	cpi	r27, 0xF9	; 249
 6f8:	cc f3       	brlt	.-14     	; 0x6ec <__fixunssfsi+0x34>
 6fa:	86 95       	lsr	r24
 6fc:	77 95       	ror	r23
 6fe:	67 95       	ror	r22
 700:	b3 95       	inc	r27
 702:	d9 f7       	brne	.-10     	; 0x6fa <__fixunssfsi+0x42>
 704:	3e f4       	brtc	.+14     	; 0x714 <__fixunssfsi+0x5c>
 706:	90 95       	com	r25
 708:	80 95       	com	r24
 70a:	70 95       	com	r23
 70c:	61 95       	neg	r22
 70e:	7f 4f       	sbci	r23, 0xFF	; 255
 710:	8f 4f       	sbci	r24, 0xFF	; 255
 712:	9f 4f       	sbci	r25, 0xFF	; 255
 714:	08 95       	ret

00000716 <__floatunsisf>:
 716:	e8 94       	clt
 718:	09 c0       	rjmp	.+18     	; 0x72c <__floatsisf+0x12>

0000071a <__floatsisf>:
 71a:	97 fb       	bst	r25, 7
 71c:	3e f4       	brtc	.+14     	; 0x72c <__floatsisf+0x12>
 71e:	90 95       	com	r25
 720:	80 95       	com	r24
 722:	70 95       	com	r23
 724:	61 95       	neg	r22
 726:	7f 4f       	sbci	r23, 0xFF	; 255
 728:	8f 4f       	sbci	r24, 0xFF	; 255
 72a:	9f 4f       	sbci	r25, 0xFF	; 255
 72c:	99 23       	and	r25, r25
 72e:	a9 f0       	breq	.+42     	; 0x75a <__floatsisf+0x40>
 730:	f9 2f       	mov	r31, r25
 732:	96 e9       	ldi	r25, 0x96	; 150
 734:	bb 27       	eor	r27, r27
 736:	93 95       	inc	r25
 738:	f6 95       	lsr	r31
 73a:	87 95       	ror	r24
 73c:	77 95       	ror	r23
 73e:	67 95       	ror	r22
 740:	b7 95       	ror	r27
 742:	f1 11       	cpse	r31, r1
 744:	f8 cf       	rjmp	.-16     	; 0x736 <__floatsisf+0x1c>
 746:	fa f4       	brpl	.+62     	; 0x786 <__floatsisf+0x6c>
 748:	bb 0f       	add	r27, r27
 74a:	11 f4       	brne	.+4      	; 0x750 <__floatsisf+0x36>
 74c:	60 ff       	sbrs	r22, 0
 74e:	1b c0       	rjmp	.+54     	; 0x786 <__floatsisf+0x6c>
 750:	6f 5f       	subi	r22, 0xFF	; 255
 752:	7f 4f       	sbci	r23, 0xFF	; 255
 754:	8f 4f       	sbci	r24, 0xFF	; 255
 756:	9f 4f       	sbci	r25, 0xFF	; 255
 758:	16 c0       	rjmp	.+44     	; 0x786 <__floatsisf+0x6c>
 75a:	88 23       	and	r24, r24
 75c:	11 f0       	breq	.+4      	; 0x762 <__floatsisf+0x48>
 75e:	96 e9       	ldi	r25, 0x96	; 150
 760:	11 c0       	rjmp	.+34     	; 0x784 <__floatsisf+0x6a>
 762:	77 23       	and	r23, r23
 764:	21 f0       	breq	.+8      	; 0x76e <__floatsisf+0x54>
 766:	9e e8       	ldi	r25, 0x8E	; 142
 768:	87 2f       	mov	r24, r23
 76a:	76 2f       	mov	r23, r22
 76c:	05 c0       	rjmp	.+10     	; 0x778 <__floatsisf+0x5e>
 76e:	66 23       	and	r22, r22
 770:	71 f0       	breq	.+28     	; 0x78e <__floatsisf+0x74>
 772:	96 e8       	ldi	r25, 0x86	; 134
 774:	86 2f       	mov	r24, r22
 776:	70 e0       	ldi	r23, 0x00	; 0
 778:	60 e0       	ldi	r22, 0x00	; 0
 77a:	2a f0       	brmi	.+10     	; 0x786 <__floatsisf+0x6c>
 77c:	9a 95       	dec	r25
 77e:	66 0f       	add	r22, r22
 780:	77 1f       	adc	r23, r23
 782:	88 1f       	adc	r24, r24
 784:	da f7       	brpl	.-10     	; 0x77c <__floatsisf+0x62>
 786:	88 0f       	add	r24, r24
 788:	96 95       	lsr	r25
 78a:	87 95       	ror	r24
 78c:	97 f9       	bld	r25, 7
 78e:	08 95       	ret

00000790 <__fp_cmp>:
 790:	99 0f       	add	r25, r25
 792:	00 08       	sbc	r0, r0
 794:	55 0f       	add	r21, r21
 796:	aa 0b       	sbc	r26, r26
 798:	e0 e8       	ldi	r30, 0x80	; 128
 79a:	fe ef       	ldi	r31, 0xFE	; 254
 79c:	16 16       	cp	r1, r22
 79e:	17 06       	cpc	r1, r23
 7a0:	e8 07       	cpc	r30, r24
 7a2:	f9 07       	cpc	r31, r25
 7a4:	c0 f0       	brcs	.+48     	; 0x7d6 <__fp_cmp+0x46>
 7a6:	12 16       	cp	r1, r18
 7a8:	13 06       	cpc	r1, r19
 7aa:	e4 07       	cpc	r30, r20
 7ac:	f5 07       	cpc	r31, r21
 7ae:	98 f0       	brcs	.+38     	; 0x7d6 <__fp_cmp+0x46>
 7b0:	62 1b       	sub	r22, r18
 7b2:	73 0b       	sbc	r23, r19
 7b4:	84 0b       	sbc	r24, r20
 7b6:	95 0b       	sbc	r25, r21
 7b8:	39 f4       	brne	.+14     	; 0x7c8 <__fp_cmp+0x38>
 7ba:	0a 26       	eor	r0, r26
 7bc:	61 f0       	breq	.+24     	; 0x7d6 <__fp_cmp+0x46>
 7be:	23 2b       	or	r18, r19
 7c0:	24 2b       	or	r18, r20
 7c2:	25 2b       	or	r18, r21
 7c4:	21 f4       	brne	.+8      	; 0x7ce <__fp_cmp+0x3e>
 7c6:	08 95       	ret
 7c8:	0a 26       	eor	r0, r26
 7ca:	09 f4       	brne	.+2      	; 0x7ce <__fp_cmp+0x3e>
 7cc:	a1 40       	sbci	r26, 0x01	; 1
 7ce:	a6 95       	lsr	r26
 7d0:	8f ef       	ldi	r24, 0xFF	; 255
 7d2:	81 1d       	adc	r24, r1
 7d4:	81 1d       	adc	r24, r1
 7d6:	08 95       	ret

000007d8 <__fp_inf>:
 7d8:	97 f9       	bld	r25, 7
 7da:	9f 67       	ori	r25, 0x7F	; 127
 7dc:	80 e8       	ldi	r24, 0x80	; 128
 7de:	70 e0       	ldi	r23, 0x00	; 0
 7e0:	60 e0       	ldi	r22, 0x00	; 0
 7e2:	08 95       	ret

000007e4 <__fp_nan>:
 7e4:	9f ef       	ldi	r25, 0xFF	; 255
 7e6:	80 ec       	ldi	r24, 0xC0	; 192
 7e8:	08 95       	ret

000007ea <__fp_pscA>:
 7ea:	00 24       	eor	r0, r0
 7ec:	0a 94       	dec	r0
 7ee:	16 16       	cp	r1, r22
 7f0:	17 06       	cpc	r1, r23
 7f2:	18 06       	cpc	r1, r24
 7f4:	09 06       	cpc	r0, r25
 7f6:	08 95       	ret

000007f8 <__fp_pscB>:
 7f8:	00 24       	eor	r0, r0
 7fa:	0a 94       	dec	r0
 7fc:	12 16       	cp	r1, r18
 7fe:	13 06       	cpc	r1, r19
 800:	14 06       	cpc	r1, r20
 802:	05 06       	cpc	r0, r21
 804:	08 95       	ret

00000806 <__fp_round>:
 806:	09 2e       	mov	r0, r25
 808:	03 94       	inc	r0
 80a:	00 0c       	add	r0, r0
 80c:	11 f4       	brne	.+4      	; 0x812 <__fp_round+0xc>
 80e:	88 23       	and	r24, r24
 810:	52 f0       	brmi	.+20     	; 0x826 <__fp_round+0x20>
 812:	bb 0f       	add	r27, r27
 814:	40 f4       	brcc	.+16     	; 0x826 <__fp_round+0x20>
 816:	bf 2b       	or	r27, r31
 818:	11 f4       	brne	.+4      	; 0x81e <__fp_round+0x18>
 81a:	60 ff       	sbrs	r22, 0
 81c:	04 c0       	rjmp	.+8      	; 0x826 <__fp_round+0x20>
 81e:	6f 5f       	subi	r22, 0xFF	; 255
 820:	7f 4f       	sbci	r23, 0xFF	; 255
 822:	8f 4f       	sbci	r24, 0xFF	; 255
 824:	9f 4f       	sbci	r25, 0xFF	; 255
 826:	08 95       	ret

00000828 <__fp_split3>:
 828:	57 fd       	sbrc	r21, 7
 82a:	90 58       	subi	r25, 0x80	; 128
 82c:	44 0f       	add	r20, r20
 82e:	55 1f       	adc	r21, r21
 830:	59 f0       	breq	.+22     	; 0x848 <__fp_splitA+0x10>
 832:	5f 3f       	cpi	r21, 0xFF	; 255
 834:	71 f0       	breq	.+28     	; 0x852 <__fp_splitA+0x1a>
 836:	47 95       	ror	r20

00000838 <__fp_splitA>:
 838:	88 0f       	add	r24, r24
 83a:	97 fb       	bst	r25, 7
 83c:	99 1f       	adc	r25, r25
 83e:	61 f0       	breq	.+24     	; 0x858 <__fp_splitA+0x20>
 840:	9f 3f       	cpi	r25, 0xFF	; 255
 842:	79 f0       	breq	.+30     	; 0x862 <__stack+0x3>
 844:	87 95       	ror	r24
 846:	08 95       	ret
 848:	12 16       	cp	r1, r18
 84a:	13 06       	cpc	r1, r19
 84c:	14 06       	cpc	r1, r20
 84e:	55 1f       	adc	r21, r21
 850:	f2 cf       	rjmp	.-28     	; 0x836 <__fp_split3+0xe>
 852:	46 95       	lsr	r20
 854:	f1 df       	rcall	.-30     	; 0x838 <__fp_splitA>
 856:	08 c0       	rjmp	.+16     	; 0x868 <__stack+0x9>
 858:	16 16       	cp	r1, r22
 85a:	17 06       	cpc	r1, r23
 85c:	18 06       	cpc	r1, r24
 85e:	99 1f       	adc	r25, r25
 860:	f1 cf       	rjmp	.-30     	; 0x844 <__fp_splitA+0xc>
 862:	86 95       	lsr	r24
 864:	71 05       	cpc	r23, r1
 866:	61 05       	cpc	r22, r1
 868:	08 94       	sec
 86a:	08 95       	ret

0000086c <__fp_zero>:
 86c:	e8 94       	clt

0000086e <__fp_szero>:
 86e:	bb 27       	eor	r27, r27
 870:	66 27       	eor	r22, r22
 872:	77 27       	eor	r23, r23
 874:	cb 01       	movw	r24, r22
 876:	97 f9       	bld	r25, 7
 878:	08 95       	ret

0000087a <__gesf2>:
 87a:	0e 94 c8 03 	call	0x790	; 0x790 <__fp_cmp>
 87e:	08 f4       	brcc	.+2      	; 0x882 <__gesf2+0x8>
 880:	8f ef       	ldi	r24, 0xFF	; 255
 882:	08 95       	ret

00000884 <__mulsf3>:
 884:	0e 94 55 04 	call	0x8aa	; 0x8aa <__mulsf3x>
 888:	0c 94 03 04 	jmp	0x806	; 0x806 <__fp_round>
 88c:	0e 94 f5 03 	call	0x7ea	; 0x7ea <__fp_pscA>
 890:	38 f0       	brcs	.+14     	; 0x8a0 <__mulsf3+0x1c>
 892:	0e 94 fc 03 	call	0x7f8	; 0x7f8 <__fp_pscB>
 896:	20 f0       	brcs	.+8      	; 0x8a0 <__mulsf3+0x1c>
 898:	95 23       	and	r25, r21
 89a:	11 f0       	breq	.+4      	; 0x8a0 <__mulsf3+0x1c>
 89c:	0c 94 ec 03 	jmp	0x7d8	; 0x7d8 <__fp_inf>
 8a0:	0c 94 f2 03 	jmp	0x7e4	; 0x7e4 <__fp_nan>
 8a4:	11 24       	eor	r1, r1
 8a6:	0c 94 37 04 	jmp	0x86e	; 0x86e <__fp_szero>

000008aa <__mulsf3x>:
 8aa:	0e 94 14 04 	call	0x828	; 0x828 <__fp_split3>
 8ae:	70 f3       	brcs	.-36     	; 0x88c <__mulsf3+0x8>

000008b0 <__mulsf3_pse>:
 8b0:	95 9f       	mul	r25, r21
 8b2:	c1 f3       	breq	.-16     	; 0x8a4 <__mulsf3+0x20>
 8b4:	95 0f       	add	r25, r21
 8b6:	50 e0       	ldi	r21, 0x00	; 0
 8b8:	55 1f       	adc	r21, r21
 8ba:	62 9f       	mul	r22, r18
 8bc:	f0 01       	movw	r30, r0
 8be:	72 9f       	mul	r23, r18
 8c0:	bb 27       	eor	r27, r27
 8c2:	f0 0d       	add	r31, r0
 8c4:	b1 1d       	adc	r27, r1
 8c6:	63 9f       	mul	r22, r19
 8c8:	aa 27       	eor	r26, r26
 8ca:	f0 0d       	add	r31, r0
 8cc:	b1 1d       	adc	r27, r1
 8ce:	aa 1f       	adc	r26, r26
 8d0:	64 9f       	mul	r22, r20
 8d2:	66 27       	eor	r22, r22
 8d4:	b0 0d       	add	r27, r0
 8d6:	a1 1d       	adc	r26, r1
 8d8:	66 1f       	adc	r22, r22
 8da:	82 9f       	mul	r24, r18
 8dc:	22 27       	eor	r18, r18
 8de:	b0 0d       	add	r27, r0
 8e0:	a1 1d       	adc	r26, r1
 8e2:	62 1f       	adc	r22, r18
 8e4:	73 9f       	mul	r23, r19
 8e6:	b0 0d       	add	r27, r0
 8e8:	a1 1d       	adc	r26, r1
 8ea:	62 1f       	adc	r22, r18
 8ec:	83 9f       	mul	r24, r19
 8ee:	a0 0d       	add	r26, r0
 8f0:	61 1d       	adc	r22, r1
 8f2:	22 1f       	adc	r18, r18
 8f4:	74 9f       	mul	r23, r20
 8f6:	33 27       	eor	r19, r19
 8f8:	a0 0d       	add	r26, r0
 8fa:	61 1d       	adc	r22, r1
 8fc:	23 1f       	adc	r18, r19
 8fe:	84 9f       	mul	r24, r20
 900:	60 0d       	add	r22, r0
 902:	21 1d       	adc	r18, r1
 904:	82 2f       	mov	r24, r18
 906:	76 2f       	mov	r23, r22
 908:	6a 2f       	mov	r22, r26
 90a:	11 24       	eor	r1, r1
 90c:	9f 57       	subi	r25, 0x7F	; 127
 90e:	50 40       	sbci	r21, 0x00	; 0
 910:	9a f0       	brmi	.+38     	; 0x938 <__mulsf3_pse+0x88>
 912:	f1 f0       	breq	.+60     	; 0x950 <__mulsf3_pse+0xa0>
 914:	88 23       	and	r24, r24
 916:	4a f0       	brmi	.+18     	; 0x92a <__mulsf3_pse+0x7a>
 918:	ee 0f       	add	r30, r30
 91a:	ff 1f       	adc	r31, r31
 91c:	bb 1f       	adc	r27, r27
 91e:	66 1f       	adc	r22, r22
 920:	77 1f       	adc	r23, r23
 922:	88 1f       	adc	r24, r24
 924:	91 50       	subi	r25, 0x01	; 1
 926:	50 40       	sbci	r21, 0x00	; 0
 928:	a9 f7       	brne	.-22     	; 0x914 <__mulsf3_pse+0x64>
 92a:	9e 3f       	cpi	r25, 0xFE	; 254
 92c:	51 05       	cpc	r21, r1
 92e:	80 f0       	brcs	.+32     	; 0x950 <__mulsf3_pse+0xa0>
 930:	0c 94 ec 03 	jmp	0x7d8	; 0x7d8 <__fp_inf>
 934:	0c 94 37 04 	jmp	0x86e	; 0x86e <__fp_szero>
 938:	5f 3f       	cpi	r21, 0xFF	; 255
 93a:	e4 f3       	brlt	.-8      	; 0x934 <__mulsf3_pse+0x84>
 93c:	98 3e       	cpi	r25, 0xE8	; 232
 93e:	d4 f3       	brlt	.-12     	; 0x934 <__mulsf3_pse+0x84>
 940:	86 95       	lsr	r24
 942:	77 95       	ror	r23
 944:	67 95       	ror	r22
 946:	b7 95       	ror	r27
 948:	f7 95       	ror	r31
 94a:	e7 95       	ror	r30
 94c:	9f 5f       	subi	r25, 0xFF	; 255
 94e:	c1 f7       	brne	.-16     	; 0x940 <__mulsf3_pse+0x90>
 950:	fe 2b       	or	r31, r30
 952:	88 0f       	add	r24, r24
 954:	91 1d       	adc	r25, r1
 956:	96 95       	lsr	r25
 958:	87 95       	ror	r24
 95a:	97 f9       	bld	r25, 7
 95c:	08 95       	ret

0000095e <__umulhisi3>:
 95e:	a2 9f       	mul	r26, r18
 960:	b0 01       	movw	r22, r0
 962:	b3 9f       	mul	r27, r19
 964:	c0 01       	movw	r24, r0
 966:	a3 9f       	mul	r26, r19
 968:	70 0d       	add	r23, r0
 96a:	81 1d       	adc	r24, r1
 96c:	11 24       	eor	r1, r1
 96e:	91 1d       	adc	r25, r1
 970:	b2 9f       	mul	r27, r18
 972:	70 0d       	add	r23, r0
 974:	81 1d       	adc	r24, r1
 976:	11 24       	eor	r1, r1
 978:	91 1d       	adc	r25, r1
 97a:	08 95       	ret

0000097c <_exit>:
 97c:	f8 94       	cli

0000097e <__stop_program>:
 97e:	ff cf       	rjmp	.-2      	; 0x97e <__stop_program>
